(dp0
I0
ccollections
Counter
p1
((dp2
I1
I1
stp3
Rp4
sI1
g1
((dp5
I2
I2
sI3
I2
stp6
Rp7
sI2
g1
((dp8
I4
I3
sI5
I2
sI6
I1
stp9
Rp10
sI3
g1
((dp11
I5
I1
sI6
I2
sI7
I3
stp12
Rp13
sI4
g1
((dp14
I8
I4
sI9
I2
sI10
I1
sI12
I1
stp15
Rp16
sI5
g1
((dp17
I9
I2
sI10
I2
sI11
I3
sI13
I4
sI14
I2
sI15
I1
stp18
Rp19
sI6
g1
((dp20
I16
I4
sI17
I2
sI10
I1
sI12
I3
sI14
I2
sI15
I2
stp21
Rp22
sI7
g1
((dp23
I17
I2
sI18
I4
sI11
I1
sI15
I1
stp24
Rp25
sI8
g1
((dp26
tp27
Rp28
sI9
g1
((dp29
tp30
Rp31
sI10
g1
((dp32
tp33
Rp34
sI11
g1
((dp35
tp36
Rp37
sI12
g1
((dp38
tp39
Rp40
sI13
g1
((dp41
tp42
Rp43
sI14
g1
((dp44
tp45
Rp46
sI15
g1
((dp47
tp48
Rp49
sI16
g1
((dp50
tp51
Rp52
sI17
g1
((dp53
tp54
Rp55
sI18
g1
((dp56
tp57
Rp58
s.