(dp0
I0
ccollections
Counter
p1
((dp2
I1
I1
stp3
Rp4
sI1
g1
((dp5
I2
I2
sI3
I2
stp6
Rp7
sI2
g1
((dp8
I4
I3
sI5
I2
sI6
I1
stp9
Rp10
sI3
g1
((dp11
I5
I1
sI6
I2
sI7
I3
stp12
Rp13
sI4
g1
((dp14
I8
I4
sI9
I2
sI10
I1
sI12
I1
stp15
Rp16
sI5
g1
((dp17
I9
I2
sI10
I2
sI11
I3
sI13
I4
sI14
I2
sI15
I1
stp18
Rp19
sI6
g1
((dp20
I16
I4
sI17
I2
sI10
I1
sI12
I3
sI14
I2
sI15
I2
stp21
Rp22
sI7
g1
((dp23
I17
I2
sI18
I4
sI11
I1
sI15
I1
stp24
Rp25
sI8
g1
((dp26
I19
I5
sI20
I2
sI21
I1
sI30
I1
sI23
I1
stp27
Rp28
sI9
g1
((dp29
I32
I1
sI33
I1
sI20
I3
sI21
I2
sI22
I3
sI24
I4
sI25
I2
sI26
I1
sI31
I1
stp30
Rp31
sI10
g1
((dp32
I32
I1
sI34
I2
sI35
I2
sI36
I1
sI37
I1
sI21
I2
sI23
I3
sI25
I2
sI26
I2
sI27
I4
sI28
I2
sI31
I2
stp33
Rp34
sI11
g1
((dp35
I38
I2
sI39
I1
sI40
I1
sI41
I1
sI22
I2
sI26
I1
sI28
I2
sI29
I4
stp36
Rp37
sI12
g1
((dp38
I32
I1
sI33
I2
sI36
I1
sI37
I1
sI42
I2
sI43
I2
sI23
I1
sI30
I4
stp39
Rp40
sI13
g1
((dp41
I34
I1
sI38
I3
sI39
I1
sI24
I1
sI44
I1
sI31
I2
stp42
Rp43
sI14
g1
((dp44
I32
I2
sI34
I2
sI35
I1
sI36
I2
sI39
I2
sI40
I2
sI45
I5
sI46
I2
sI47
I1
sI25
I1
stp45
Rp46
sI15
g1
((dp47
I33
I2
sI35
I2
sI37
I2
sI39
I1
sI40
I1
sI41
I3
sI44
I4
sI46
I2
sI47
I2
sI48
I2
sI49
I2
sI26
I1
stp48
Rp49
sI16
g1
((dp50
I48
I2
sI50
I1
sI36
I1
sI42
I3
sI27
I1
sI46
I1
stp51
Rp52
sI17
g1
((dp53
I37
I1
sI40
I1
sI43
I3
sI47
I2
sI48
I1
sI49
I2
sI50
I4
sI51
I3
sI28
I1
stp54
Rp55
sI18
g1
((dp56
I41
I1
sI51
I2
sI52
I5
sI29
I1
sI49
I1
stp57
Rp58
sI19
g1
((dp59
I64
I1
sI53
I6
sI54
I2
sI55
I1
sI57
I1
sI87
I1
stp60
Rp61
sI20
g1
((dp62
I65
I1
sI66
I1
sI67
I1
sI56
I3
sI54
I4
sI55
I2
sI88
I1
sI89
I1
sI58
I4
sI59
I2
sI60
I1
sI90
I1
stp63
Rp64
sI21
g1
((dp65
I65
I2
sI66
I1
sI68
I2
sI69
I2
sI70
I1
sI71
I1
sI91
I2
sI92
I2
sI93
I1
sI94
I1
sI95
I1
sI96
I1
sI55
I3
sI57
I3
sI59
I2
sI60
I2
sI61
I4
sI62
I2
stp66
Rp67
sI22
g1
((dp68
I97
I1
sI98
I1
sI99
I1
sI100
I1
sI72
I2
sI73
I1
sI74
I1
sI75
I1
sI56
I3
sI60
I1
sI62
I2
sI63
I4
stp69
Rp70
sI23
g1
((dp71
I64
I4
sI66
I1
sI67
I2
sI70
I1
sI71
I1
sI76
I2
sI77
I2
sI88
I2
sI89
I1
sI93
I1
sI94
I1
sI101
I2
sI102
I2
sI115
I1
sI116
I1
sI57
I2
stp72
Rp73
sI24
g1
((dp74
I65
I2
sI68
I1
sI103
I6
sI72
I3
sI73
I1
sI107
I1
sI108
I1
sI78
I1
sI104
I2
sI117
I1
sI105
I1
sI58
I2
stp75
Rp76
sI25
g1
((dp77
I66
I2
sI68
I2
sI69
I1
sI70
I2
sI73
I2
sI74
I2
sI79
I5
sI80
I2
sI81
I1
sI104
I2
sI105
I2
sI106
I3
sI109
I2
sI110
I2
sI111
I1
sI112
I1
sI118
I1
sI119
I1
sI120
I1
sI59
I2
stp78
Rp79
sI26
g1
((dp80
I67
I2
sI69
I2
sI71
I2
sI73
I1
sI74
I1
sI75
I3
sI78
I4
sI80
I2
sI81
I2
sI82
I2
sI83
I2
sI124
I1
sI107
I2
sI108
I1
sI111
I1
sI112
I1
sI113
I2
sI114
I2
sI121
I1
sI122
I1
sI123
I1
sI60
I2
sI125
I1
sI126
I1
stp81
Rp82
sI27
g1
((dp83
I128
I1
sI129
I1
sI133
I1
sI70
I1
sI138
I1
sI76
I3
sI80
I1
sI82
I2
sI84
I1
sI61
I2
sI134
I1
sI127
I2
stp84
Rp85
sI28
g1
((dp86
I130
I2
sI131
I1
sI132
I1
sI71
I1
sI136
I1
sI137
I1
sI74
I1
sI139
I1
sI140
I1
sI77
I3
sI141
I1
sI81
I2
sI82
I1
sI83
I2
sI84
I4
sI85
I3
sI135
I1
sI62
I2
stp87
Rp88
sI29
g1
((dp89
I75
I1
sI142
I2
sI143
I1
sI144
I1
sI145
I1
sI146
I1
sI83
I1
sI85
I2
sI86
I5
sI63
I2
stp90
Rp91
sI30
g1
((dp92
I64
I1
sI96
I1
sI115
I1
sI147
I2
sI148
I2
sI89
I1
sI87
I5
sI116
I1
sI90
I2
sI95
I1
stp93
Rp94
sI31
g1
((dp95
I128
I1
sI65
I1
sI130
I2
sI131
I1
sI149
I1
sI150
I1
sI88
I3
sI91
I4
sI93
I1
sI97
I3
sI98
I1
sI104
I2
sI107
I2
sI109
I2
sI111
I1
sI121
I1
sI122
I1
sI127
I4
stp96
Rp97
sI32
g1
((dp98
I128
I1
sI129
I2
sI66
I1
sI131
I1
sI132
I2
sI118
I2
sI151
I2
sI152
I2
sI153
I1
sI154
I1
sI92
I4
sI93
I1
sI94
I1
sI95
I2
sI98
I2
sI99
I2
sI105
I2
sI108
I2
sI110
I2
sI112
I1
sI89
I3
sI119
I1
sI123
I1
sI124
I1
stp99
Rp100
sI33
g1
((dp101
I67
I1
sI149
I1
sI150
I1
sI153
I1
sI154
I1
sI155
I2
sI156
I2
sI90
I3
sI94
I1
sI96
I2
sI99
I1
sI100
I3
sI108
I1
sI117
I4
sI119
I1
sI120
I2
sI125
I1
sI126
I1
stp102
Rp103
sI34
g1
((dp104
I128
I2
sI68
I1
sI133
I2
sI135
I2
sI136
I1
sI157
I6
sI158
I2
sI159
I1
sI161
I2
sI162
I1
sI163
I1
sI101
I2
sI105
I1
sI109
I2
sI93
I2
sI111
I1
sI113
I2
sI118
I2
sI121
I2
sI123
I1
stp105
Rp106
sI35
g1
((dp107
I69
I1
sI134
I2
sI136
I1
sI137
I2
sI158
I1
sI159
I2
sI160
I3
sI133
I2
sI164
I1
sI165
I1
sI102
I2
sI106
I3
sI111
I1
sI112
I1
sI114
I2
sI94
I2
sI119
I1
sI122
I2
sI124
I1
sI166
I1
stp108
Rp109
sI36
g1
((dp110
I128
I1
sI129
I2
sI134
I1
sI139
I2
sI140
I1
sI149
I2
sI151
I2
sI153
I1
sI101
I2
sI95
I2
sI161
I4
sI162
I1
sI164
I2
sI165
I1
sI167
I4
sI168
I2
sI169
I1
sI170
I1
sI110
I2
sI115
I3
sI119
I1
sI123
I1
sI70
I1
sI125
I2
stp111
Rp112
sI37
g1
((dp113
I131
I1
sI134
I1
sI71
I1
sI138
I4
sI140
I1
sI141
I2
sI150
I2
sI152
I2
sI154
I1
sI96
I2
sI162
I1
sI163
I2
sI165
I1
sI166
I2
sI169
I1
sI170
I1
sI171
I2
sI172
I2
sI112
I1
sI116
I3
sI120
I2
sI124
I1
sI102
I2
sI126
I2
stp114
Rp115
sI38
g1
((dp116
I97
I2
sI130
I2
sI135
I1
sI72
I1
sI107
I1
sI173
I6
sI142
I4
sI143
I1
sI179
I1
sI174
I2
sI121
I1
sI175
I1
stp117
Rp118
sI39
g1
((dp119
I131
I2
sI135
I1
sI136
I1
sI73
I1
sI139
I2
sI98
I2
sI143
I3
sI144
I2
sI149
I2
sI111
I1
sI158
I2
sI162
I1
sI108
I1
sI174
I4
sI175
I2
sI176
I4
sI177
I2
sI180
I2
sI181
I1
sI182
I2
sI183
I1
sI121
I1
sI122
I1
sI123
I1
stp120
Rp121
sI40
g1
((dp122
I132
I2
sI135
I1
sI136
I1
sI137
I1
sI74
I1
sI140
I2
sI144
I2
sI145
I3
sI162
I1
sI99
I2
sI113
I2
sI168
I2
sI175
I2
sI112
I1
sI177
I2
sI178
I4
sI180
I2
sI181
I1
sI184
I2
sI185
I2
sI186
I1
sI187
I1
sI124
I1
sI125
I1
stp123
Rp124
sI41
g1
((dp125
I137
I1
sI75
I1
sI141
I2
sI143
I1
sI145
I1
sI146
I4
sI100
I2
sI114
I2
sI179
I2
sI182
I2
sI183
I1
sI186
I1
sI187
I1
sI188
I2
sI189
I2
sI126
I1
stp126
Rp127
sI42
g1
((dp128
I192
I1
sI129
I1
sI115
I1
sI167
I2
sI169
I1
sI171
I1
sI76
I1
sI147
I4
sI153
I1
sI155
I2
sI190
I6
sI191
I2
stp129
Rp130
sI43
g1
((dp131
I192
I2
sI193
I3
sI132
I1
sI168
I1
sI170
I1
sI172
I1
sI77
I1
sI148
I4
sI116
I1
sI154
I1
sI156
I2
sI191
I1
stp132
Rp133
sI44
g1
((dp134
I194
I2
sI163
I1
sI179
I3
sI78
I1
sI175
I1
sI195
I2
sI181
I1
sI150
I2
sI183
I1
sI122
I1
sI159
I1
sI117
I1
stp135
Rp136
sI45
g1
((dp137
I164
I1
sI79
I1
sI180
I2
sI118
I1
sI151
I2
sI184
I1
sI196
I1
sI158
I1
stp138
Rp139
sI46
g1
((dp140
I133
I1
sI198
I2
sI199
I1
sI80
I1
sI152
I2
sI153
I2
sI197
I6
sI162
I1
sI164
I2
sI165
I1
sI169
I2
sI159
I2
sI176
I2
sI181
I2
sI182
I2
sI119
I1
sI184
I2
sI185
I1
sI186
I2
sI123
I1
stp141
Rp142
sI47
g1
((dp143
I196
I5
sI198
I2
sI199
I2
sI136
I1
sI201
I2
sI81
I1
sI154
I2
sI184
I1
sI160
I3
sI163
I2
sI165
I1
sI166
I1
sI124
I1
sI170
I2
sI177
I2
sI183
I2
sI120
I1
sI185
I2
sI187
I2
sI200
I2
stp144
Rp145
sI48
g1
((dp146
I194
I4
sI203
I1
sI198
I2
sI200
I2
sI202
I4
sI139
I1
sI82
I1
sI155
I2
sI165
I1
sI168
I1
sI169
I1
sI171
I2
sI181
I1
sI186
I1
sI188
I3
sI125
I1
sI134
I1
sI191
I3
stp147
Rp148
sI49
g1
((dp149
I195
I4
sI199
I2
sI137
I1
sI202
I2
sI203
I2
sI204
I3
sI144
I1
sI83
I1
sI156
I2
sI166
I2
sI172
I2
sI189
I3
sI178
I2
sI201
I2
sI186
I1
sI187
I1
sI183
I1
sI126
I1
stp150
Rp151
sI50
g1
((dp152
I192
I3
sI171
I1
sI199
I1
sI200
I2
sI138
I1
sI203
I2
sI140
I1
sI205
I6
sI206
I2
sI84
I1
sI185
I1
sI170
I1
stp153
Rp154
sI51
g1
((dp155
I193
I3
sI201
I2
sI203
I1
sI172
I1
sI141
I1
sI206
I4
sI207
I4
sI145
I1
sI204
I2
sI85
I1
sI187
I1
sI188
I1
stp156
Rp157
sI52
g1
((dp158
I208
I6
sI146
I1
sI86
I1
sI204
I1
sI189
I1
sI207
I2
stp159
Rp160
sI53
g1
((dp161
tp162
Rp163
sI54
g1
((dp164
tp165
Rp166
sI55
g1
((dp167
tp168
Rp169
sI56
g1
((dp170
tp171
Rp172
sI57
g1
((dp173
tp174
Rp175
sI58
g1
((dp176
tp177
Rp178
sI59
g1
((dp179
tp180
Rp181
sI60
g1
((dp182
tp183
Rp184
sI61
g1
((dp185
tp186
Rp187
sI62
g1
((dp188
tp189
Rp190
sI63
g1
((dp191
tp192
Rp193
sI64
g1
((dp194
tp195
Rp196
sI65
g1
((dp197
tp198
Rp199
sI66
g1
((dp200
tp201
Rp202
sI67
g1
((dp203
tp204
Rp205
sI68
g1
((dp206
tp207
Rp208
sI69
g1
((dp209
tp210
Rp211
sI70
g1
((dp212
tp213
Rp214
sI71
g1
((dp215
tp216
Rp217
sI72
g1
((dp218
tp219
Rp220
sI73
g1
((dp221
tp222
Rp223
sI74
g1
((dp224
tp225
Rp226
sI75
g1
((dp227
tp228
Rp229
sI76
g1
((dp230
tp231
Rp232
sI77
g1
((dp233
tp234
Rp235
sI78
g1
((dp236
tp237
Rp238
sI79
g1
((dp239
tp240
Rp241
sI80
g1
((dp242
tp243
Rp244
sI81
g1
((dp245
tp246
Rp247
sI82
g1
((dp248
tp249
Rp250
sI83
g1
((dp251
tp252
Rp253
sI84
g1
((dp254
tp255
Rp256
sI85
g1
((dp257
tp258
Rp259
sI86
g1
((dp260
tp261
Rp262
sI87
g1
((dp263
tp264
Rp265
sI88
g1
((dp266
tp267
Rp268
sI89
g1
((dp269
tp270
Rp271
sI90
g1
((dp272
tp273
Rp274
sI91
g1
((dp275
tp276
Rp277
sI92
g1
((dp278
tp279
Rp280
sI93
g1
((dp281
tp282
Rp283
sI94
g1
((dp284
tp285
Rp286
sI95
g1
((dp287
tp288
Rp289
sI96
g1
((dp290
tp291
Rp292
sI97
g1
((dp293
tp294
Rp295
sI98
g1
((dp296
tp297
Rp298
sI99
g1
((dp299
tp300
Rp301
sI100
g1
((dp302
tp303
Rp304
sI101
g1
((dp305
tp306
Rp307
sI102
g1
((dp308
tp309
Rp310
sI103
g1
((dp311
tp312
Rp313
sI104
g1
((dp314
tp315
Rp316
sI105
g1
((dp317
tp318
Rp319
sI106
g1
((dp320
tp321
Rp322
sI107
g1
((dp323
tp324
Rp325
sI108
g1
((dp326
tp327
Rp328
sI109
g1
((dp329
tp330
Rp331
sI110
g1
((dp332
tp333
Rp334
sI111
g1
((dp335
tp336
Rp337
sI112
g1
((dp338
tp339
Rp340
sI113
g1
((dp341
tp342
Rp343
sI114
g1
((dp344
tp345
Rp346
sI115
g1
((dp347
tp348
Rp349
sI116
g1
((dp350
tp351
Rp352
sI117
g1
((dp353
tp354
Rp355
sI118
g1
((dp356
tp357
Rp358
sI119
g1
((dp359
tp360
Rp361
sI120
g1
((dp362
tp363
Rp364
sI121
g1
((dp365
tp366
Rp367
sI122
g1
((dp368
tp369
Rp370
sI123
g1
((dp371
tp372
Rp373
sI124
g1
((dp374
tp375
Rp376
sI125
g1
((dp377
tp378
Rp379
sI126
g1
((dp380
tp381
Rp382
sI127
g1
((dp383
tp384
Rp385
sI128
g1
((dp386
tp387
Rp388
sI129
g1
((dp389
tp390
Rp391
sI130
g1
((dp392
tp393
Rp394
sI131
g1
((dp395
tp396
Rp397
sI132
g1
((dp398
tp399
Rp400
sI133
g1
((dp401
tp402
Rp403
sI134
g1
((dp404
tp405
Rp406
sI135
g1
((dp407
tp408
Rp409
sI136
g1
((dp410
tp411
Rp412
sI137
g1
((dp413
tp414
Rp415
sI138
g1
((dp416
tp417
Rp418
sI139
g1
((dp419
tp420
Rp421
sI140
g1
((dp422
tp423
Rp424
sI141
g1
((dp425
tp426
Rp427
sI142
g1
((dp428
tp429
Rp430
sI143
g1
((dp431
tp432
Rp433
sI144
g1
((dp434
tp435
Rp436
sI145
g1
((dp437
tp438
Rp439
sI146
g1
((dp440
tp441
Rp442
sI147
g1
((dp443
tp444
Rp445
sI148
g1
((dp446
tp447
Rp448
sI149
g1
((dp449
tp450
Rp451
sI150
g1
((dp452
tp453
Rp454
sI151
g1
((dp455
tp456
Rp457
sI152
g1
((dp458
tp459
Rp460
sI153
g1
((dp461
tp462
Rp463
sI154
g1
((dp464
tp465
Rp466
sI155
g1
((dp467
tp468
Rp469
sI156
g1
((dp470
tp471
Rp472
sI157
g1
((dp473
tp474
Rp475
sI158
g1
((dp476
tp477
Rp478
sI159
g1
((dp479
tp480
Rp481
sI160
g1
((dp482
tp483
Rp484
sI161
g1
((dp485
tp486
Rp487
sI162
g1
((dp488
tp489
Rp490
sI163
g1
((dp491
tp492
Rp493
sI164
g1
((dp494
tp495
Rp496
sI165
g1
((dp497
tp498
Rp499
sI166
g1
((dp500
tp501
Rp502
sI167
g1
((dp503
tp504
Rp505
sI168
g1
((dp506
tp507
Rp508
sI169
g1
((dp509
tp510
Rp511
sI170
g1
((dp512
tp513
Rp514
sI171
g1
((dp515
tp516
Rp517
sI172
g1
((dp518
tp519
Rp520
sI173
g1
((dp521
tp522
Rp523
sI174
g1
((dp524
tp525
Rp526
sI175
g1
((dp527
tp528
Rp529
sI176
g1
((dp530
tp531
Rp532
sI177
g1
((dp533
tp534
Rp535
sI178
g1
((dp536
tp537
Rp538
sI179
g1
((dp539
tp540
Rp541
sI180
g1
((dp542
tp543
Rp544
sI181
g1
((dp545
tp546
Rp547
sI182
g1
((dp548
tp549
Rp550
sI183
g1
((dp551
tp552
Rp553
sI184
g1
((dp554
tp555
Rp556
sI185
g1
((dp557
tp558
Rp559
sI186
g1
((dp560
tp561
Rp562
sI187
g1
((dp563
tp564
Rp565
sI188
g1
((dp566
tp567
Rp568
sI189
g1
((dp569
tp570
Rp571
sI190
g1
((dp572
tp573
Rp574
sI191
g1
((dp575
tp576
Rp577
sI192
g1
((dp578
tp579
Rp580
sI193
g1
((dp581
tp582
Rp583
sI194
g1
((dp584
tp585
Rp586
sI195
g1
((dp587
tp588
Rp589
sI196
g1
((dp590
tp591
Rp592
sI197
g1
((dp593
tp594
Rp595
sI198
g1
((dp596
tp597
Rp598
sI199
g1
((dp599
tp600
Rp601
sI200
g1
((dp602
tp603
Rp604
sI201
g1
((dp605
tp606
Rp607
sI202
g1
((dp608
tp609
Rp610
sI203
g1
((dp611
tp612
Rp613
sI204
g1
((dp614
tp615
Rp616
sI205
g1
((dp617
tp618
Rp619
sI206
g1
((dp620
tp621
Rp622
sI207
g1
((dp623
tp624
Rp625
sI208
g1
((dp626
tp627
Rp628
s.