(dp0
I0
ccollections
Counter
p1
((dp2
I1
I1
stp3
Rp4
sI1
g1
((dp5
I2
I2
sI3
I2
stp6
Rp7
sI2
g1
((dp8
I4
I3
sI5
I2
sI6
I1
stp9
Rp10
sI3
g1
((dp11
I5
I1
sI6
I2
sI7
I3
stp12
Rp13
sI4
g1
((dp14
I8
I4
sI9
I2
sI10
I1
sI12
I1
stp15
Rp16
sI5
g1
((dp17
I9
I2
sI10
I2
sI11
I3
sI13
I4
sI14
I2
sI15
I1
stp18
Rp19
sI6
g1
((dp20
I16
I4
sI17
I2
sI10
I1
sI12
I3
sI14
I2
sI15
I2
stp21
Rp22
sI7
g1
((dp23
I17
I2
sI18
I4
sI11
I1
sI15
I1
stp24
Rp25
sI8
g1
((dp26
I19
I5
sI20
I2
sI21
I1
sI30
I1
sI23
I1
stp27
Rp28
sI9
g1
((dp29
I32
I1
sI33
I1
sI20
I3
sI21
I2
sI22
I3
sI24
I4
sI25
I2
sI26
I1
sI31
I1
stp30
Rp31
sI10
g1
((dp32
I32
I1
sI34
I2
sI35
I2
sI36
I1
sI37
I1
sI21
I2
sI23
I3
sI25
I2
sI26
I2
sI27
I4
sI28
I2
sI31
I2
stp33
Rp34
sI11
g1
((dp35
I38
I2
sI39
I1
sI40
I1
sI41
I1
sI22
I2
sI26
I1
sI28
I2
sI29
I4
stp36
Rp37
sI12
g1
((dp38
I32
I1
sI33
I2
sI36
I1
sI37
I1
sI42
I2
sI43
I2
sI23
I1
sI30
I4
stp39
Rp40
sI13
g1
((dp41
I34
I1
sI38
I3
sI39
I1
sI24
I1
sI44
I1
sI31
I2
stp42
Rp43
sI14
g1
((dp44
I32
I2
sI34
I2
sI35
I1
sI36
I2
sI39
I2
sI40
I2
sI45
I5
sI46
I2
sI47
I1
sI25
I1
stp45
Rp46
sI15
g1
((dp47
I33
I2
sI35
I2
sI37
I2
sI39
I1
sI40
I1
sI41
I3
sI44
I4
sI46
I2
sI47
I2
sI48
I2
sI49
I2
sI26
I1
stp48
Rp49
sI16
g1
((dp50
I48
I2
sI50
I1
sI36
I1
sI42
I3
sI27
I1
sI46
I1
stp51
Rp52
sI17
g1
((dp53
I37
I1
sI40
I1
sI43
I3
sI47
I2
sI48
I1
sI49
I2
sI50
I4
sI51
I3
sI28
I1
stp54
Rp55
sI18
g1
((dp56
I41
I1
sI51
I2
sI52
I5
sI29
I1
sI49
I1
stp57
Rp58
sI19
g1
((dp59
tp60
Rp61
sI20
g1
((dp62
tp63
Rp64
sI21
g1
((dp65
tp66
Rp67
sI22
g1
((dp68
tp69
Rp70
sI23
g1
((dp71
tp72
Rp73
sI24
g1
((dp74
tp75
Rp76
sI25
g1
((dp77
tp78
Rp79
sI26
g1
((dp80
tp81
Rp82
sI27
g1
((dp83
tp84
Rp85
sI28
g1
((dp86
tp87
Rp88
sI29
g1
((dp89
tp90
Rp91
sI30
g1
((dp92
tp93
Rp94
sI31
g1
((dp95
tp96
Rp97
sI32
g1
((dp98
tp99
Rp100
sI33
g1
((dp101
tp102
Rp103
sI34
g1
((dp104
tp105
Rp106
sI35
g1
((dp107
tp108
Rp109
sI36
g1
((dp110
tp111
Rp112
sI37
g1
((dp113
tp114
Rp115
sI38
g1
((dp116
tp117
Rp118
sI39
g1
((dp119
tp120
Rp121
sI40
g1
((dp122
tp123
Rp124
sI41
g1
((dp125
tp126
Rp127
sI42
g1
((dp128
tp129
Rp130
sI43
g1
((dp131
tp132
Rp133
sI44
g1
((dp134
tp135
Rp136
sI45
g1
((dp137
tp138
Rp139
sI46
g1
((dp140
tp141
Rp142
sI47
g1
((dp143
tp144
Rp145
sI48
g1
((dp146
tp147
Rp148
sI49
g1
((dp149
tp150
Rp151
sI50
g1
((dp152
tp153
Rp154
sI51
g1
((dp155
tp156
Rp157
sI52
g1
((dp158
tp159
Rp160
s.