(dp0
I0
ccollections
Counter
p1
((dp2
I1
I1
stp3
Rp4
sI1
g1
((dp5
I2
I2
sI3
I2
stp6
Rp7
sI2
g1
((dp8
I4
I3
sI5
I2
sI6
I1
stp9
Rp10
sI3
g1
((dp11
I5
I1
sI6
I2
sI7
I3
stp12
Rp13
sI4
g1
((dp14
tp15
Rp16
sI5
g1
((dp17
tp18
Rp19
sI6
g1
((dp20
tp21
Rp22
sI7
g1
((dp23
tp24
Rp25
s.